; Function Attrs: nofree norecurse nosync nounwind memory(argmem: readwrite) uwtable
define internal void @yuv2plane1_10BE_c(ptr noundef readonly captures(none) %0, ptr noundef writeonly captures(none) %1, i32 noundef %2, ptr readnone captures(none) %3, i32 %4) #2 {
  %6 = icmp sgt i32 %2, 0
  br i1 %6, label %.lr.ph.preheader, label %yuv2plane1_10_c_template.exit

.lr.ph.preheader:                                 ; preds = %5
  %wide.trip.count = zext nneg i32 %2 to i64
  br label %.lr.ph

.lr.ph:                                           ; preds = %.lr.ph.preheader, %.lr.ph
  %indvars.iv = phi i64 [ 0, %.lr.ph.preheader ], [ %indvars.iv.next, %.lr.ph ]
  %7 = getelementptr inbounds nuw i16, ptr %0, i64 %indvars.iv
  %8 = load i16, ptr %7, align 2, !tbaa !39
  %9 = sext i16 %8 to i32
  %10 = add nsw i32 %9, 16
  %11 = ashr i32 %10, 5
  %12 = tail call i32 @llvm.smax.i32(i32 %11, i32 0)
  %13 = tail call i32 @llvm.umin.i32(i32 %12, i32 1023)
  %14 = trunc nuw nsw i32 %13 to i16
  %15 = tail call i16 @llvm.bswap.i16(i16 %14)
  %16 = getelementptr inbounds nuw i16, ptr %1, i64 %indvars.iv
  store i16 %15, ptr %16, align 1, !tbaa !41
  %indvars.iv.next = add nuw nsw i64 %indvars.iv, 1
  %exitcond.not = icmp eq i64 %indvars.iv.next, %wide.trip.count
  br i1 %exitcond.not, label %yuv2plane1_10_c_template.exit, label %.lr.ph, !llvm.loop !57

yuv2plane1_10_c_template.exit:                    ; preds = %.lr.ph, %5
  ret void
}